; Function Attrs: mustprogress nounwind uwtable
define dso_local void @_ZN3tev10UberShaderD2Ev(ptr nocapture noundef nonnull align 8 dereferenceable(40) %0) unnamed_addr #1 align 2 {
  store ptr getelementptr inbounds ({ [4 x ptr] }, ptr @_ZTVN3tev10UberShaderE, i64 0, i32 0, i64 2), ptr %0, align 8
  %2 = getelementptr inbounds i8, ptr %0, i64 16
  %3 = load ptr, ptr %2, align 8
  %.not.i = icmp eq ptr %3, null
  br i1 %.not.i, label %_ZN7nanogui3refINS_7TextureEED2Ev.exit, label %4

4:                                                ; preds = %1
  tail call void @_ZNK7nanogui6Object7dec_refEb(ptr noundef nonnull align 8 dereferenceable(12) %3, i1 noundef zeroext true) #22
  br label %_ZN7nanogui3refINS_7TextureEED2Ev.exit

_ZN7nanogui3refINS_7TextureEED2Ev.exit:           ; preds = %1, %4
  %5 = getelementptr inbounds i8, ptr %0, i64 8
  %6 = load ptr, ptr %5, align 8
  %.not.i1 = icmp eq ptr %6, null
  br i1 %.not.i1, label %_ZN7nanogui3refINS_6ShaderEED2Ev.exit, label %7

7:                                                ; preds = %_ZN7nanogui3refINS_7TextureEED2Ev.exit
  tail call void @_ZNK7nanogui6Object7dec_refEb(ptr noundef nonnull align 8 dereferenceable(12) %6, i1 noundef zeroext true) #22
  br label %_ZN7nanogui3refINS_6ShaderEED2Ev.exit

_ZN7nanogui3refINS_6ShaderEED2Ev.exit:            ; preds = %_ZN7nanogui3refINS_7TextureEED2Ev.exit, %7
  ret void
}